; Function Attrs: nounwind uwtable
define internal void @zend_file_cache_unserialize_func(ptr nocapture noundef %0, ptr noundef %1, ptr noundef %2) #0 {
  %4 = load ptr, ptr %0, align 8, !nonnull !4, !noundef !4
  %5 = getelementptr inbounds i8, ptr %1, i64 424
  %6 = load i64, ptr %5, align 8
  %7 = inttoptr i64 %6 to ptr
  %8 = icmp ule ptr %4, %7
  tail call void @llvm.assume(i1 %8)
  %9 = ptrtoint ptr %4 to i64
  %10 = getelementptr inbounds i8, ptr %2, i64 %9
  store ptr %10, ptr %0, align 8
  %11 = load i8, ptr %10, align 8
  %12 = icmp eq i8 %11, 2
  tail call void @llvm.assume(i1 %12)
  tail call fastcc void @zend_file_cache_unserialize_op_array(ptr noundef nonnull %10, ptr noundef %1, ptr noundef %2)
  ret void
}